; Function Attrs: mustprogress nofree norecurse nosync nounwind willreturn memory(argmem: readwrite) uwtable
define void @png_set_read_user_transform_fn(ptr noalias noundef captures(none) initializes((272, 280)) %0, ptr noundef %1) local_unnamed_addr #7 {
  %3 = getelementptr inbounds nuw i8, ptr %0, i64 308
  %4 = load i32, ptr %3, align 4, !tbaa !25
  %5 = or i32 %4, 1048576
  store i32 %5, ptr %3, align 4, !tbaa !25
  %6 = getelementptr inbounds nuw i8, ptr %0, i64 272
  store ptr %1, ptr %6, align 8, !tbaa !130
  ret void
}